target datalayout = "e-m:e-p270:32:32-p271:32:32-p272:64:64-i64:64-i128:128-f80:128-n8:16:32:64-S128"
target triple = "x86_64-pc-linux-gnu"

; Function Attrs: inlinehint nounwind uwtable
define internal void @avg_tpel_pixels_mc11_c(ptr noundef %0, ptr noundef %1, i32 noundef %2, i32 noundef %3, i32 noundef %4) #1 {
  %6 = alloca ptr, align 8
  %7 = alloca ptr, align 8
  %8 = alloca i32, align 4
  %9 = alloca i32, align 4
  %10 = alloca i32, align 4
  %11 = alloca i32, align 4
  %12 = alloca i32, align 4
  store ptr %0, ptr %6, align 8, !tbaa !10
  store ptr %1, ptr %7, align 8, !tbaa !10
  store i32 %2, ptr %8, align 4, !tbaa !12
  store i32 %3, ptr %9, align 4, !tbaa !12
  store i32 %4, ptr %10, align 4, !tbaa !12
  call void @llvm.lifetime.start.p0(i64 4, ptr %11) #4
  call void @llvm.lifetime.start.p0(i64 4, ptr %12) #4
  store i32 0, ptr %11, align 4, !tbaa !12
  br label %13

13:                                               ; preds = %89, %5
  %14 = load i32, ptr %11, align 4, !tbaa !12
  %15 = load i32, ptr %10, align 4, !tbaa !12
  %16 = icmp slt i32 %14, %15
  br i1 %16, label %17, label %92

17:                                               ; preds = %13
  store i32 0, ptr %12, align 4, !tbaa !12
  br label %18

18:                                               ; preds = %77, %17
  %19 = load i32, ptr %12, align 4, !tbaa !12
  %20 = load i32, ptr %9, align 4, !tbaa !12
  %21 = icmp slt i32 %19, %20
  br i1 %21, label %22, label %80

22:                                               ; preds = %18
  %23 = load ptr, ptr %6, align 8, !tbaa !10
  %24 = load i32, ptr %12, align 4, !tbaa !12
  %25 = sext i32 %24 to i64
  %26 = getelementptr inbounds i8, ptr %23, i64 %25
  %27 = load i8, ptr %26, align 1, !tbaa !14
  %28 = zext i8 %27 to i32
  %29 = load ptr, ptr %7, align 8, !tbaa !10
  %30 = load i32, ptr %12, align 4, !tbaa !12
  %31 = sext i32 %30 to i64
  %32 = getelementptr inbounds i8, ptr %29, i64 %31
  %33 = load i8, ptr %32, align 1, !tbaa !14
  %34 = zext i8 %33 to i32
  %35 = mul nsw i32 4, %34
  %36 = load ptr, ptr %7, align 8, !tbaa !10
  %37 = load i32, ptr %12, align 4, !tbaa !12
  %38 = add nsw i32 %37, 1
  %39 = sext i32 %38 to i64
  %40 = getelementptr inbounds i8, ptr %36, i64 %39
  %41 = load i8, ptr %40, align 1, !tbaa !14
  %42 = zext i8 %41 to i32
  %43 = mul nsw i32 3, %42
  %44 = add nsw i32 %35, %43
  %45 = load ptr, ptr %7, align 8, !tbaa !10
  %46 = load i32, ptr %12, align 4, !tbaa !12
  %47 = load i32, ptr %8, align 4, !tbaa !12
  %48 = add nsw i32 %46, %47
  %49 = sext i32 %48 to i64
  %50 = getelementptr inbounds i8, ptr %45, i64 %49
  %51 = load i8, ptr %50, align 1, !tbaa !14
  %52 = zext i8 %51 to i32
  %53 = mul nsw i32 3, %52
  %54 = add nsw i32 %44, %53
  %55 = load ptr, ptr %7, align 8, !tbaa !10
  %56 = load i32, ptr %12, align 4, !tbaa !12
  %57 = load i32, ptr %8, align 4, !tbaa !12
  %58 = add nsw i32 %56, %57
  %59 = add nsw i32 %58, 1
  %60 = sext i32 %59 to i64
  %61 = getelementptr inbounds i8, ptr %55, i64 %60
  %62 = load i8, ptr %61, align 1, !tbaa !14
  %63 = zext i8 %62 to i32
  %64 = mul nsw i32 2, %63
  %65 = add nsw i32 %54, %64
  %66 = add nsw i32 %65, 6
  %67 = mul nsw i32 %66, 2731
  %68 = ashr i32 %67, 15
  %69 = add nsw i32 %28, %68
  %70 = add nsw i32 %69, 1
  %71 = ashr i32 %70, 1
  %72 = trunc i32 %71 to i8
  %73 = load ptr, ptr %6, align 8, !tbaa !10
  %74 = load i32, ptr %12, align 4, !tbaa !12
  %75 = sext i32 %74 to i64
  %76 = getelementptr inbounds i8, ptr %73, i64 %75
  store i8 %72, ptr %76, align 1, !tbaa !14
  br label %77

77:                                               ; preds = %22
  %78 = load i32, ptr %12, align 4, !tbaa !12
  %79 = add nsw i32 %78, 1
  store i32 %79, ptr %12, align 4, !tbaa !12
  br label %18, !llvm.loop !38

80:                                               ; preds = %18
  %81 = load i32, ptr %8, align 4, !tbaa !12
  %82 = load ptr, ptr %7, align 8, !tbaa !10
  %83 = sext i32 %81 to i64
  %84 = getelementptr inbounds i8, ptr %82, i64 %83
  store ptr %84, ptr %7, align 8, !tbaa !10
  %85 = load i32, ptr %8, align 4, !tbaa !12
  %86 = load ptr, ptr %6, align 8, !tbaa !10
  %87 = sext i32 %85 to i64
  %88 = getelementptr inbounds i8, ptr %86, i64 %87
  store ptr %88, ptr %6, align 8, !tbaa !10
  br label %89

89:                                               ; preds = %80
  %90 = load i32, ptr %11, align 4, !tbaa !12
  %91 = add nsw i32 %90, 1
  store i32 %91, ptr %11, align 4, !tbaa !12
  br label %13, !llvm.loop !39

92:                                               ; preds = %13
  call void @llvm.lifetime.end.p0(i64 4, ptr %12) #4
  call void @llvm.lifetime.end.p0(i64 4, ptr %11) #4
  ret void
}