; Function Attrs: inlinehint nofree norecurse nosync nounwind memory(argmem: readwrite) uwtable
define internal void @avg_tpel_pixels_mc11_c(ptr noundef captures(none) %0, ptr noundef readonly captures(none) %1, i32 noundef %2, i32 noundef %3, i32 noundef %4) #1 {
  %6 = icmp sgt i32 %4, 0
  br i1 %6, label %.preheader.lr.ph, label %._crit_edge31

.preheader.lr.ph:                                 ; preds = %5
  %7 = icmp sgt i32 %3, 0
  %8 = sext i32 %2 to i64
  br i1 %7, label %.preheader.us.preheader, label %._crit_edge31

.preheader.us.preheader:                          ; preds = %.preheader.lr.ph
  %wide.trip.count = zext nneg i32 %3 to i64
  br label %.preheader.us

.preheader.us:                                    ; preds = %.preheader.us.preheader, %._crit_edge.us
  %.02330.us = phi i32 [ %34, %._crit_edge.us ], [ 0, %.preheader.us.preheader ]
  %.02429.us = phi ptr [ %33, %._crit_edge.us ], [ %0, %.preheader.us.preheader ]
  %.02528.us = phi ptr [ %32, %._crit_edge.us ], [ %1, %.preheader.us.preheader ]
  %invariant.gep = getelementptr i8, ptr %.02528.us, i64 %8
  br label %9

9:                                                ; preds = %.preheader.us, %9
  %indvars.iv = phi i64 [ 0, %.preheader.us ], [ %indvars.iv.next, %9 ]
  %10 = getelementptr inbounds nuw i8, ptr %.02429.us, i64 %indvars.iv
  %11 = load i8, ptr %10, align 1, !tbaa !8
  %12 = zext i8 %11 to i32
  %13 = getelementptr inbounds nuw i8, ptr %.02528.us, i64 %indvars.iv
  %14 = load i8, ptr %13, align 1, !tbaa !8
  %15 = zext i8 %14 to i32
  %.reass.us = mul nuw nsw i32 %15, 10924
  %indvars.iv.next = add nuw nsw i64 %indvars.iv, 1
  %16 = getelementptr inbounds nuw i8, ptr %.02528.us, i64 %indvars.iv.next
  %17 = load i8, ptr %16, align 1, !tbaa !8
  %18 = zext i8 %17 to i32
  %gep = getelementptr i8, ptr %invariant.gep, i64 %indvars.iv
  %19 = load i8, ptr %gep, align 1, !tbaa !8
  %20 = zext i8 %19 to i32
  %21 = getelementptr i8, ptr %gep, i64 1
  %22 = load i8, ptr %21, align 1, !tbaa !8
  %23 = zext i8 %22 to i32
  %.reass26.us = mul nuw nsw i32 %23, 5462
  %reass.add.us = add nuw nsw i32 %20, %18
  %reass.mul.reass.us = mul nuw nsw i32 %reass.add.us, 8193
  %24 = add nuw nsw i32 %.reass26.us, %.reass.us
  %25 = add nuw nsw i32 %24, %reass.mul.reass.us
  %26 = add nuw nsw i32 %25, 16386
  %27 = lshr i32 %26, 15
  %28 = add nuw nsw i32 %12, 1
  %29 = add nuw nsw i32 %28, %27
  %30 = lshr i32 %29, 1
  %31 = trunc nuw i32 %30 to i8
  store i8 %31, ptr %10, align 1, !tbaa !8
  %exitcond.not = icmp eq i64 %indvars.iv.next, %wide.trip.count
  br i1 %exitcond.not, label %._crit_edge.us, label %9, !llvm.loop !42

._crit_edge.us:                                   ; preds = %9
  %32 = getelementptr inbounds i8, ptr %.02528.us, i64 %8
  %33 = getelementptr inbounds i8, ptr %.02429.us, i64 %8
  %34 = add nuw nsw i32 %.02330.us, 1
  %exitcond34.not = icmp eq i32 %34, %4
  br i1 %exitcond34.not, label %._crit_edge31, label %.preheader.us, !llvm.loop !43

._crit_edge31:                                    ; preds = %._crit_edge.us, %.preheader.lr.ph, %5
  ret void
}